target datalayout = "e-m:e-p270:32:32-p271:32:32-p272:64:64-i64:64-i128:128-f80:128-n8:16:32:64-S128"
target triple = "x86_64-pc-linux-gnu"

%struct.UDataInfo = type { i16, i16, i8, i8, i8, i8, [4 x i8], [4 x i8], [4 x i8] }
%struct.UDataSwapper = type { i8, i8, i8, i8, ptr, ptr, ptr, ptr, ptr, ptr, ptr, ptr, ptr, ptr, ptr }

@.str = private unnamed_addr constant [106 x i8] c"udict_swap(): data format %02x.%02x.%02x.%02x (format version %02x) is not recognized as dictionary data\0A\00", align 1
@.str.1 = private unnamed_addr constant [67 x i8] c"udict_swap(): too few bytes (%d after header) for dictionary data\0A\00", align 1
@.str.2 = private unnamed_addr constant [74 x i8] c"udict_swap(): too few bytes (%d after header) for all of dictionary data\0A\00", align 1
@.str.3 = private unnamed_addr constant [34 x i8] c"udict_swap(): unknown trie type!\0A\00", align 1

; Function Attrs: inlinehint mustprogress nounwind uwtable
define internal noundef signext i8 @_ZL9U_FAILURE10UErrorCode(i32 noundef %0) #7 {
  %2 = alloca i32, align 4
  store i32 %0, ptr %2, align 4, !tbaa !63
  %3 = load i32, ptr %2, align 4, !tbaa !63
  %4 = icmp sgt i32 %3, 0
  %5 = zext i1 %4 to i8
  ret i8 %5
}

; Function Attrs: mustprogress uwtable
define i32 @udict_swap_77(ptr noundef %0, ptr noundef %1, i32 noundef %2, ptr noundef %3, ptr noundef %4) #5 {
  %6 = alloca i32, align 4
  %7 = alloca ptr, align 8
  %8 = alloca ptr, align 8
  %9 = alloca i32, align 4
  %10 = alloca ptr, align 8
  %11 = alloca ptr, align 8
  %12 = alloca ptr, align 8
  %13 = alloca i32, align 4
  %14 = alloca ptr, align 8
  %15 = alloca ptr, align 8
  %16 = alloca ptr, align 8
  %17 = alloca [8 x i32], align 16
  %18 = alloca i32, align 4
  %19 = alloca i32, align 4
  %20 = alloca i32, align 4
  %21 = alloca i32, align 4
  %22 = alloca i32, align 4
  %23 = alloca i32, align 4
  store ptr %0, ptr %7, align 8, !tbaa !61
  store ptr %1, ptr %8, align 8, !tbaa !53
  store i32 %2, ptr %9, align 4, !tbaa !19
  store ptr %3, ptr %10, align 8, !tbaa !53
  store ptr %4, ptr %11, align 8, !tbaa !53
  call void @llvm.lifetime.start.p0(i64 8, ptr %12) #11
  call void @llvm.lifetime.start.p0(i64 4, ptr %13) #11
  call void @llvm.lifetime.start.p0(i64 8, ptr %14) #11
  call void @llvm.lifetime.start.p0(i64 8, ptr %15) #11
  call void @llvm.lifetime.start.p0(i64 8, ptr %16) #11
  call void @llvm.lifetime.start.p0(i64 32, ptr %17) #11
  call void @llvm.lifetime.start.p0(i64 4, ptr %18) #11
  call void @llvm.lifetime.start.p0(i64 4, ptr %19) #11
  call void @llvm.lifetime.start.p0(i64 4, ptr %20) #11
  %24 = load ptr, ptr %7, align 8, !tbaa !61
  %25 = load ptr, ptr %8, align 8, !tbaa !53
  %26 = load i32, ptr %9, align 4, !tbaa !19
  %27 = load ptr, ptr %10, align 8, !tbaa !53
  %28 = load ptr, ptr %11, align 8, !tbaa !53
  %29 = call i32 @udata_swapDataHeader_77(ptr noundef %24, ptr noundef %25, i32 noundef %26, ptr noundef %27, ptr noundef %28)
  store i32 %29, ptr %13, align 4, !tbaa !19
  %30 = load ptr, ptr %11, align 8, !tbaa !53
  %31 = icmp eq ptr %30, null
  br i1 %31, label %37, label %32

32:                                               ; preds = %5
  %33 = load ptr, ptr %11, align 8, !tbaa !53
  %34 = load i32, ptr %33, align 4, !tbaa !63
  %35 = call noundef signext i8 @_ZL9U_FAILURE10UErrorCode(i32 noundef %34)
  %36 = icmp ne i8 %35, 0
  br i1 %36, label %37, label %38

37:                                               ; preds = %32, %5
  store i32 0, ptr %6, align 4
  store i32 1, ptr %21, align 4
  br label %232

38:                                               ; preds = %32
  %39 = load ptr, ptr %8, align 8, !tbaa !53
  %40 = getelementptr inbounds i8, ptr %39, i64 4
  store ptr %40, ptr %12, align 8, !tbaa !53
  %41 = load ptr, ptr %12, align 8, !tbaa !53
  %42 = getelementptr inbounds nuw %struct.UDataInfo, ptr %41, i32 0, i32 6
  %43 = getelementptr inbounds [4 x i8], ptr %42, i64 0, i64 0
  %44 = load i8, ptr %43, align 2, !tbaa !60
  %45 = zext i8 %44 to i32
  %46 = icmp eq i32 %45, 68
  br i1 %46, label %47, label %75

47:                                               ; preds = %38
  %48 = load ptr, ptr %12, align 8, !tbaa !53
  %49 = getelementptr inbounds nuw %struct.UDataInfo, ptr %48, i32 0, i32 6
  %50 = getelementptr inbounds [4 x i8], ptr %49, i64 0, i64 1
  %51 = load i8, ptr %50, align 1, !tbaa !60
  %52 = zext i8 %51 to i32
  %53 = icmp eq i32 %52, 105
  br i1 %53, label %54, label %75

54:                                               ; preds = %47
  %55 = load ptr, ptr %12, align 8, !tbaa !53
  %56 = getelementptr inbounds nuw %struct.UDataInfo, ptr %55, i32 0, i32 6
  %57 = getelementptr inbounds [4 x i8], ptr %56, i64 0, i64 2
  %58 = load i8, ptr %57, align 2, !tbaa !60
  %59 = zext i8 %58 to i32
  %60 = icmp eq i32 %59, 99
  br i1 %60, label %61, label %75

61:                                               ; preds = %54
  %62 = load ptr, ptr %12, align 8, !tbaa !53
  %63 = getelementptr inbounds nuw %struct.UDataInfo, ptr %62, i32 0, i32 6
  %64 = getelementptr inbounds [4 x i8], ptr %63, i64 0, i64 3
  %65 = load i8, ptr %64, align 1, !tbaa !60
  %66 = zext i8 %65 to i32
  %67 = icmp eq i32 %66, 116
  br i1 %67, label %68, label %75

68:                                               ; preds = %61
  %69 = load ptr, ptr %12, align 8, !tbaa !53
  %70 = getelementptr inbounds nuw %struct.UDataInfo, ptr %69, i32 0, i32 7
  %71 = getelementptr inbounds [4 x i8], ptr %70, i64 0, i64 0
  %72 = load i8, ptr %71, align 2, !tbaa !60
  %73 = zext i8 %72 to i32
  %74 = icmp eq i32 %73, 1
  br i1 %74, label %103, label %75

75:                                               ; preds = %68, %61, %54, %47, %38
  %76 = load ptr, ptr %7, align 8, !tbaa !61
  %77 = load ptr, ptr %12, align 8, !tbaa !53
  %78 = getelementptr inbounds nuw %struct.UDataInfo, ptr %77, i32 0, i32 6
  %79 = getelementptr inbounds [4 x i8], ptr %78, i64 0, i64 0
  %80 = load i8, ptr %79, align 2, !tbaa !60
  %81 = zext i8 %80 to i32
  %82 = load ptr, ptr %12, align 8, !tbaa !53
  %83 = getelementptr inbounds nuw %struct.UDataInfo, ptr %82, i32 0, i32 6
  %84 = getelementptr inbounds [4 x i8], ptr %83, i64 0, i64 1
  %85 = load i8, ptr %84, align 1, !tbaa !60
  %86 = zext i8 %85 to i32
  %87 = load ptr, ptr %12, align 8, !tbaa !53
  %88 = getelementptr inbounds nuw %struct.UDataInfo, ptr %87, i32 0, i32 6
  %89 = getelementptr inbounds [4 x i8], ptr %88, i64 0, i64 2
  %90 = load i8, ptr %89, align 2, !tbaa !60
  %91 = zext i8 %90 to i32
  %92 = load ptr, ptr %12, align 8, !tbaa !53
  %93 = getelementptr inbounds nuw %struct.UDataInfo, ptr %92, i32 0, i32 6
  %94 = getelementptr inbounds [4 x i8], ptr %93, i64 0, i64 3
  %95 = load i8, ptr %94, align 1, !tbaa !60
  %96 = zext i8 %95 to i32
  %97 = load ptr, ptr %12, align 8, !tbaa !53
  %98 = getelementptr inbounds nuw %struct.UDataInfo, ptr %97, i32 0, i32 7
  %99 = getelementptr inbounds [4 x i8], ptr %98, i64 0, i64 0
  %100 = load i8, ptr %99, align 2, !tbaa !60
  %101 = zext i8 %100 to i32
  call void (ptr, ptr, ...) @udata_printError_77(ptr noundef %76, ptr noundef @.str, i32 noundef %81, i32 noundef %86, i32 noundef %91, i32 noundef %96, i32 noundef %101)
  %102 = load ptr, ptr %11, align 8, !tbaa !53
  store i32 16, ptr %102, align 4, !tbaa !63
  store i32 0, ptr %6, align 4
  store i32 1, ptr %21, align 4
  br label %232

103:                                              ; preds = %68
  %104 = load ptr, ptr %8, align 8, !tbaa !53
  %105 = load i32, ptr %13, align 4, !tbaa !19
  %106 = sext i32 %105 to i64
  %107 = getelementptr inbounds i8, ptr %104, i64 %106
  store ptr %107, ptr %14, align 8, !tbaa !59
  %108 = load ptr, ptr %10, align 8, !tbaa !53
  %109 = icmp eq ptr %108, null
  br i1 %109, label %110, label %111

110:                                              ; preds = %103
  br label %116

111:                                              ; preds = %103
  %112 = load ptr, ptr %10, align 8, !tbaa !53
  %113 = load i32, ptr %13, align 4, !tbaa !19
  %114 = sext i32 %113 to i64
  %115 = getelementptr inbounds i8, ptr %112, i64 %114
  br label %116

116:                                              ; preds = %111, %110
  %117 = phi ptr [ null, %110 ], [ %115, %111 ]
  store ptr %117, ptr %15, align 8, !tbaa !59
  %118 = load ptr, ptr %14, align 8, !tbaa !59
  store ptr %118, ptr %16, align 8, !tbaa !21
  %119 = load i32, ptr %9, align 4, !tbaa !19
  %120 = icmp sge i32 %119, 0
  br i1 %120, label %121, label %132

121:                                              ; preds = %116
  %122 = load i32, ptr %13, align 4, !tbaa !19
  %123 = load i32, ptr %9, align 4, !tbaa !19
  %124 = sub nsw i32 %123, %122
  store i32 %124, ptr %9, align 4, !tbaa !19
  %125 = load i32, ptr %9, align 4, !tbaa !19
  %126 = icmp slt i32 %125, 32
  br i1 %126, label %127, label %131

127:                                              ; preds = %121
  %128 = load ptr, ptr %7, align 8, !tbaa !61
  %129 = load i32, ptr %9, align 4, !tbaa !19
  call void (ptr, ptr, ...) @udata_printError_77(ptr noundef %128, ptr noundef @.str.1, i32 noundef %129)
  %130 = load ptr, ptr %11, align 8, !tbaa !53
  store i32 8, ptr %130, align 4, !tbaa !63
  store i32 0, ptr %6, align 4
  store i32 1, ptr %21, align 4
  br label %232

131:                                              ; preds = %121
  br label %132

132:                                              ; preds = %131, %116
  store i32 0, ptr %18, align 4, !tbaa !19
  br label %133

133:                                              ; preds = %147, %132
  %134 = load i32, ptr %18, align 4, !tbaa !19
  %135 = icmp slt i32 %134, 8
  br i1 %135, label %136, label %150

136:                                              ; preds = %133
  %137 = load ptr, ptr %7, align 8, !tbaa !61
  %138 = load ptr, ptr %16, align 8, !tbaa !21
  %139 = load i32, ptr %18, align 4, !tbaa !19
  %140 = sext i32 %139 to i64
  %141 = getelementptr inbounds i32, ptr %138, i64 %140
  %142 = load i32, ptr %141, align 4, !tbaa !19
  %143 = call i32 @udata_readInt32_77(ptr noundef %137, i32 noundef %142)
  %144 = load i32, ptr %18, align 4, !tbaa !19
  %145 = sext i32 %144 to i64
  %146 = getelementptr inbounds [8 x i32], ptr %17, i64 0, i64 %145
  store i32 %143, ptr %146, align 4, !tbaa !19
  br label %147

147:                                              ; preds = %136
  %148 = load i32, ptr %18, align 4, !tbaa !19
  %149 = add nsw i32 %148, 1
  store i32 %149, ptr %18, align 4, !tbaa !19
  br label %133, !llvm.loop !65

150:                                              ; preds = %133
  %151 = getelementptr inbounds nuw [8 x i32], ptr %17, i64 0, i64 3
  %152 = load i32, ptr %151, align 4, !tbaa !19
  store i32 %152, ptr %20, align 4, !tbaa !19
  %153 = load i32, ptr %9, align 4, !tbaa !19
  %154 = icmp sge i32 %153, 0
  br i1 %154, label %155, label %228

155:                                              ; preds = %150
  %156 = load i32, ptr %9, align 4, !tbaa !19
  %157 = load i32, ptr %20, align 4, !tbaa !19
  %158 = icmp slt i32 %156, %157
  br i1 %158, label %159, label %163

159:                                              ; preds = %155
  %160 = load ptr, ptr %7, align 8, !tbaa !61
  %161 = load i32, ptr %9, align 4, !tbaa !19
  call void (ptr, ptr, ...) @udata_printError_77(ptr noundef %160, ptr noundef @.str.2, i32 noundef %161)
  %162 = load ptr, ptr %11, align 8, !tbaa !53
  store i32 8, ptr %162, align 4, !tbaa !63
  store i32 0, ptr %6, align 4
  store i32 1, ptr %21, align 4
  br label %232

163:                                              ; preds = %155
  %164 = load ptr, ptr %14, align 8, !tbaa !59
  %165 = load ptr, ptr %15, align 8, !tbaa !59
  %166 = icmp ne ptr %164, %165
  br i1 %166, label %167, label %175

167:                                              ; preds = %163
  br label %168

168:                                              ; preds = %167
  %169 = load ptr, ptr %15, align 8, !tbaa !59
  %170 = load ptr, ptr %14, align 8, !tbaa !59
  %171 = load i32, ptr %20, align 4, !tbaa !19
  %172 = sext i32 %171 to i64
  call void @llvm.memcpy.p0.p0.i64(ptr align 1 %169, ptr align 1 %170, i64 %172, i1 false)
  br label %173

173:                                              ; preds = %168
  br label %174

174:                                              ; preds = %173
  br label %175

175:                                              ; preds = %174, %163
  store i32 0, ptr %19, align 4, !tbaa !19
  %176 = load ptr, ptr %7, align 8, !tbaa !61
  %177 = getelementptr inbounds nuw %struct.UDataSwapper, ptr %176, i32 0, i32 10
  %178 = load ptr, ptr %177, align 8, !tbaa !66
  %179 = load ptr, ptr %7, align 8, !tbaa !61
  %180 = load ptr, ptr %14, align 8, !tbaa !59
  %181 = load ptr, ptr %15, align 8, !tbaa !59
  %182 = load ptr, ptr %11, align 8, !tbaa !53
  %183 = call noundef i32 %178(ptr noundef %179, ptr noundef %180, i32 noundef 32, ptr noundef %181, ptr noundef %182)
  store i32 32, ptr %19, align 4, !tbaa !19
  call void @llvm.lifetime.start.p0(i64 4, ptr %22) #11
  %184 = getelementptr inbounds nuw [8 x i32], ptr %17, i64 0, i64 4
  %185 = load i32, ptr %184, align 16, !tbaa !19
  %186 = and i32 %185, 7
  store i32 %186, ptr %22, align 4, !tbaa !19
  call void @llvm.lifetime.start.p0(i64 4, ptr %23) #11
  %187 = getelementptr inbounds nuw [8 x i32], ptr %17, i64 0, i64 1
  %188 = load i32, ptr %187, align 4, !tbaa !19
  store i32 %188, ptr %23, align 4, !tbaa !19
  %189 = load i32, ptr %22, align 4, !tbaa !19
  %190 = icmp eq i32 %189, 1
  br i1 %190, label %191, label %209

191:                                              ; preds = %175
  %192 = load ptr, ptr %7, align 8, !tbaa !61
  %193 = getelementptr inbounds nuw %struct.UDataSwapper, ptr %192, i32 0, i32 9
  %194 = load ptr, ptr %193, align 8, !tbaa !68
  %195 = load ptr, ptr %7, align 8, !tbaa !61
  %196 = load ptr, ptr %14, align 8, !tbaa !59
  %197 = load i32, ptr %19, align 4, !tbaa !19
  %198 = sext i32 %197 to i64
  %199 = getelementptr inbounds i8, ptr %196, i64 %198
  %200 = load i32, ptr %23, align 4, !tbaa !19
  %201 = load i32, ptr %19, align 4, !tbaa !19
  %202 = sub nsw i32 %200, %201
  %203 = load ptr, ptr %15, align 8, !tbaa !59
  %204 = load i32, ptr %19, align 4, !tbaa !19
  %205 = sext i32 %204 to i64
  %206 = getelementptr inbounds i8, ptr %203, i64 %205
  %207 = load ptr, ptr %11, align 8, !tbaa !53
  %208 = call noundef i32 %194(ptr noundef %195, ptr noundef %199, i32 noundef %202, ptr noundef %206, ptr noundef %207)
  br label %217

209:                                              ; preds = %175
  %210 = load i32, ptr %22, align 4, !tbaa !19
  %211 = icmp eq i32 %210, 0
  br i1 %211, label %212, label %213

212:                                              ; preds = %209
  br label %216

213:                                              ; preds = %209
  %214 = load ptr, ptr %7, align 8, !tbaa !61
  call void (ptr, ptr, ...) @udata_printError_77(ptr noundef %214, ptr noundef @.str.3)
  %215 = load ptr, ptr %11, align 8, !tbaa !53
  store i32 16, ptr %215, align 4, !tbaa !63
  store i32 0, ptr %6, align 4
  store i32 1, ptr %21, align 4
  br label %225

216:                                              ; preds = %212
  br label %217

217:                                              ; preds = %216, %191
  %218 = load i32, ptr %23, align 4, !tbaa !19
  store i32 %218, ptr %19, align 4, !tbaa !19
  %219 = getelementptr inbounds nuw [8 x i32], ptr %17, i64 0, i64 2
  %220 = load i32, ptr %219, align 8, !tbaa !19
  store i32 %220, ptr %23, align 4, !tbaa !19
  %221 = load i32, ptr %23, align 4, !tbaa !19
  store i32 %221, ptr %19, align 4, !tbaa !19
  %222 = getelementptr inbounds nuw [8 x i32], ptr %17, i64 0, i64 3
  %223 = load i32, ptr %222, align 4, !tbaa !19
  store i32 %223, ptr %23, align 4, !tbaa !19
  %224 = load i32, ptr %23, align 4, !tbaa !19
  store i32 %224, ptr %19, align 4, !tbaa !19
  store i32 0, ptr %21, align 4
  br label %225

225:                                              ; preds = %217, %213
  call void @llvm.lifetime.end.p0(i64 4, ptr %23) #11
  call void @llvm.lifetime.end.p0(i64 4, ptr %22) #11
  %226 = load i32, ptr %21, align 4
  switch i32 %226, label %232 [
    i32 0, label %227
  ]

227:                                              ; preds = %225
  br label %228

228:                                              ; preds = %227, %150
  %229 = load i32, ptr %13, align 4, !tbaa !19
  %230 = load i32, ptr %20, align 4, !tbaa !19
  %231 = add nsw i32 %229, %230
  store i32 %231, ptr %6, align 4
  store i32 1, ptr %21, align 4
  br label %232

232:                                              ; preds = %228, %225, %159, %127, %75, %37
  call void @llvm.lifetime.end.p0(i64 4, ptr %20) #11
  call void @llvm.lifetime.end.p0(i64 4, ptr %19) #11
  call void @llvm.lifetime.end.p0(i64 4, ptr %18) #11
  call void @llvm.lifetime.end.p0(i64 32, ptr %17) #11
  call void @llvm.lifetime.end.p0(i64 8, ptr %16) #11
  call void @llvm.lifetime.end.p0(i64 8, ptr %15) #11
  call void @llvm.lifetime.end.p0(i64 8, ptr %14) #11
  call void @llvm.lifetime.end.p0(i64 4, ptr %13) #11
  call void @llvm.lifetime.end.p0(i64 8, ptr %12) #11
  %233 = load i32, ptr %6, align 4
  ret i32 %233
}