; Function Attrs: mustprogress uwtable
define i32 @udict_swap_77(ptr noundef %0, ptr noundef %1, i32 noundef %2, ptr noundef %3, ptr noundef %4) local_unnamed_addr #8 {
  %6 = alloca [8 x i32], align 16
  call void @llvm.lifetime.start.p0(i64 32, ptr nonnull %6) #13
  %7 = tail call i32 @udata_swapDataHeader_77(ptr noundef %0, ptr noundef %1, i32 noundef %2, ptr noundef %3, ptr noundef %4)
  %8 = icmp eq ptr %4, null
  br i1 %8, label %88, label %9

9:                                                ; preds = %5
  %10 = load i32, ptr %4, align 4, !tbaa !38
  %11 = icmp slt i32 %10, 1
  br i1 %11, label %12, label %88

12:                                               ; preds = %9
  %13 = getelementptr inbounds nuw i8, ptr %1, i64 12
  %14 = load i8, ptr %13, align 2, !tbaa !36
  %15 = icmp eq i8 %14, 68
  %16 = getelementptr inbounds nuw i8, ptr %1, i64 13
  %17 = load i8, ptr %16, align 1, !tbaa !36
  %18 = icmp eq i8 %17, 105
  %or.cond = select i1 %15, i1 %18, i1 false
  br i1 %or.cond, label %19, label %._crit_edge

19:                                               ; preds = %12
  %20 = getelementptr inbounds nuw i8, ptr %1, i64 14
  %21 = load i8, ptr %20, align 2, !tbaa !36
  %22 = icmp eq i8 %21, 99
  br i1 %22, label %23, label %._crit_edge

23:                                               ; preds = %19
  %24 = getelementptr inbounds nuw i8, ptr %1, i64 15
  %25 = load i8, ptr %24, align 1, !tbaa !36
  %26 = icmp eq i8 %25, 116
  br i1 %26, label %27, label %._crit_edge

27:                                               ; preds = %23
  %28 = getelementptr inbounds nuw i8, ptr %1, i64 16
  %29 = load i8, ptr %28, align 2, !tbaa !36
  %30 = icmp eq i8 %29, 1
  br i1 %30, label %43, label %._crit_edge

._crit_edge:                                      ; preds = %12, %27, %23, %19
  %31 = phi i8 [ 105, %27 ], [ 105, %23 ], [ 105, %19 ], [ %17, %12 ]
  %32 = zext i8 %14 to i32
  %33 = zext i8 %31 to i32
  %34 = getelementptr inbounds nuw i8, ptr %1, i64 14
  %35 = load i8, ptr %34, align 2, !tbaa !36
  %36 = zext i8 %35 to i32
  %37 = getelementptr inbounds nuw i8, ptr %1, i64 15
  %38 = load i8, ptr %37, align 1, !tbaa !36
  %39 = zext i8 %38 to i32
  %40 = getelementptr inbounds nuw i8, ptr %1, i64 16
  %41 = load i8, ptr %40, align 2, !tbaa !36
  %42 = zext i8 %41 to i32
  tail call void (ptr, ptr, ...) @udata_printError_77(ptr noundef %0, ptr noundef nonnull @.str, i32 noundef %32, i32 noundef %33, i32 noundef %36, i32 noundef %39, i32 noundef %42)
  store i32 16, ptr %4, align 4, !tbaa !38
  br label %88

43:                                               ; preds = %27
  %44 = sext i32 %7 to i64
  %45 = getelementptr inbounds i8, ptr %1, i64 %44
  %46 = icmp eq ptr %3, null
  %47 = getelementptr inbounds i8, ptr %3, i64 %44
  %48 = select i1 %46, ptr null, ptr %47
  %49 = icmp sgt i32 %2, -1
  br i1 %49, label %50, label %54

50:                                               ; preds = %43
  %51 = sub nsw i32 %2, %7
  %52 = icmp slt i32 %51, 32
  br i1 %52, label %53, label %54

53:                                               ; preds = %50
  tail call void (ptr, ptr, ...) @udata_printError_77(ptr noundef %0, ptr noundef nonnull @.str.1, i32 noundef %51)
  store i32 8, ptr %4, align 4, !tbaa !38
  br label %88

54:                                               ; preds = %50, %43
  %.075 = phi i32 [ %51, %50 ], [ %2, %43 ]
  br label %55

55:                                               ; preds = %54, %55
  %indvars.iv = phi i64 [ 0, %54 ], [ %indvars.iv.next, %55 ]
  %56 = getelementptr inbounds nuw i32, ptr %45, i64 %indvars.iv
  %57 = load i32, ptr %56, align 4, !tbaa !21
  %58 = tail call i32 @udata_readInt32_77(ptr noundef %0, i32 noundef %57)
  %59 = getelementptr inbounds nuw [8 x i32], ptr %6, i64 0, i64 %indvars.iv
  store i32 %58, ptr %59, align 4, !tbaa !21
  %indvars.iv.next = add nuw nsw i64 %indvars.iv, 1
  %exitcond.not = icmp eq i64 %indvars.iv.next, 8
  br i1 %exitcond.not, label %60, label %55, !llvm.loop !40

60:                                               ; preds = %55
  %61 = getelementptr inbounds nuw i8, ptr %6, i64 12
  %62 = load i32, ptr %61, align 4, !tbaa !21
  %63 = icmp sgt i32 %.075, -1
  br i1 %63, label %64, label %86

64:                                               ; preds = %60
  %65 = icmp slt i32 %.075, %62
  br i1 %65, label %66, label %67

66:                                               ; preds = %64
  tail call void (ptr, ptr, ...) @udata_printError_77(ptr noundef %0, ptr noundef nonnull @.str.2, i32 noundef %.075)
  store i32 8, ptr %4, align 4, !tbaa !38
  br label %88

67:                                               ; preds = %64
  %.not85 = icmp eq ptr %45, %48
  br i1 %.not85, label %70, label %68

68:                                               ; preds = %67
  %69 = sext i32 %62 to i64
  tail call void @llvm.memcpy.p0.p0.i64(ptr align 1 %48, ptr nonnull align 1 %45, i64 %69, i1 false)
  br label %70

70:                                               ; preds = %68, %67
  %71 = getelementptr inbounds nuw i8, ptr %0, i64 56
  %72 = load ptr, ptr %71, align 8, !tbaa !41
  %73 = tail call noundef i32 %72(ptr noundef %0, ptr noundef nonnull %45, i32 noundef 32, ptr noundef %48, ptr noundef nonnull %4)
  %74 = getelementptr inbounds nuw i8, ptr %6, i64 16
  %75 = load i32, ptr %74, align 16, !tbaa !21
  %76 = and i32 %75, 7
  switch i32 %76, label %.critedge [
    i32 1, label %77
    i32 0, label %86
  ]

77:                                               ; preds = %70
  %78 = getelementptr inbounds nuw i8, ptr %6, i64 4
  %79 = load i32, ptr %78, align 4, !tbaa !21
  %80 = getelementptr inbounds nuw i8, ptr %0, i64 48
  %81 = load ptr, ptr %80, align 8, !tbaa !43
  %82 = getelementptr inbounds nuw i8, ptr %45, i64 32
  %83 = add nsw i32 %79, -32
  %84 = getelementptr inbounds nuw i8, ptr %47, i64 32
  %85 = tail call noundef i32 %81(ptr noundef nonnull %0, ptr noundef nonnull %82, i32 noundef %83, ptr noundef nonnull %84, ptr noundef nonnull %4)
  br label %86

.critedge:                                        ; preds = %70
  tail call void (ptr, ptr, ...) @udata_printError_77(ptr noundef nonnull %0, ptr noundef nonnull @.str.3)
  store i32 16, ptr %4, align 4, !tbaa !38
  br label %88

86:                                               ; preds = %70, %77, %60
  %87 = add nsw i32 %62, %7
  br label %88

88:                                               ; preds = %.critedge, %5, %9, %86, %66, %53, %._crit_edge
  %.0 = phi i32 [ 0, %53 ], [ 0, %66 ], [ %87, %86 ], [ 0, %._crit_edge ], [ 0, %9 ], [ 0, %5 ], [ 0, %.critedge ]
  call void @llvm.lifetime.end.p0(i64 32, ptr nonnull %6) #13
  ret i32 %.0
}